target datalayout = "e-m:e-p270:32:32-p271:32:32-p272:64:64-i64:64-i128:128-f80:128-n8:16:32:64-S128"
target triple = "x86_64-pc-linux-gnu"

%struct.FT_FaceRec_ = type { i64, i64, i64, i64, i64, ptr, ptr, i32, ptr, i32, ptr, %struct.FT_Generic_, %struct.FT_BBox_, i16, i16, i16, i16, i16, i16, i16, i16, ptr, ptr, ptr, ptr, ptr, ptr, %struct.FT_ListRec_, %struct.FT_Generic_, ptr, ptr }
%struct.FT_BBox_ = type { i64, i64, i64, i64 }
%struct.FT_ListRec_ = type { ptr, ptr }
%struct.FT_Generic_ = type { ptr, ptr }
%struct.TT_FaceRec_ = type { %struct.FT_FaceRec_, %struct.TTC_HeaderRec_, i64, i16, ptr, %struct.TT_Header_, %struct.TT_HoriHeader_, %struct.TT_MaxProfile_, i8, %struct.TT_VertHeader_, i16, %struct.TT_NameTableRec_, %struct.TT_OS2_, %struct.TT_Postscript_, ptr, i64, ptr, ptr, ptr, ptr, ptr, ptr, ptr, ptr, ptr, ptr, ptr, ptr, %struct.TT_Gasp_, %struct.TT_PCLT_, i64, ptr, %struct.TT_Post_NamesRec_, %struct.FT_Palette_Data_, i16, ptr, i8, %struct.FT_Color_, i64, ptr, i64, ptr, i64, ptr, ptr, %struct.FT_Generic_, ptr, i64, i64, i8, i8, ptr, i32, ptr, i32, i32, ptr, i64, i64, i64, ptr, ptr, i64, i32, i64, ptr, ptr, i64, i32, i32, ptr, ptr, i64, i32, i32, i32, %struct.TT_BDFRec_, i64, i64, i64, i64, ptr, ptr, ptr }
%struct.TTC_HeaderRec_ = type { i64, i64, i64, ptr }
%struct.TT_Header_ = type { i64, i64, i64, i64, i16, i16, [2 x i64], [2 x i64], i16, i16, i16, i16, i16, i16, i16, i16, i16 }
%struct.TT_HoriHeader_ = type { i64, i16, i16, i16, i16, i16, i16, i16, i16, i16, i16, [4 x i16], i16, i16, ptr, ptr }
%struct.TT_MaxProfile_ = type { i64, i16, i16, i16, i16, i16, i16, i16, i16, i16, i16, i16, i16, i16, i16 }
%struct.TT_VertHeader_ = type { i64, i16, i16, i16, i16, i16, i16, i16, i16, i16, i16, [4 x i16], i16, i16, ptr, ptr }
%struct.TT_NameTableRec_ = type { i16, i32, i32, ptr, i32, ptr, ptr }
%struct.TT_OS2_ = type { i16, i16, i16, i16, i16, i16, i16, i16, i16, i16, i16, i16, i16, i16, i16, i16, [10 x i8], i64, i64, i64, i64, [4 x i8], i16, i16, i16, i16, i16, i16, i16, i16, i64, i64, i16, i16, i16, i16, i16, i16, i16 }
%struct.TT_Postscript_ = type { i64, i64, i16, i16, i64, i64, i64, i64, i64 }
%struct.TT_Gasp_ = type { i16, i16, ptr }
%struct.TT_PCLT_ = type { i64, i64, i16, i16, i16, i16, i16, i16, [16 x i8], [8 x i8], [6 x i8], i8, i8, i8, i8 }
%struct.TT_Post_NamesRec_ = type { i8, i16, i16, ptr, ptr }
%struct.FT_Palette_Data_ = type { i16, ptr, ptr, i16, ptr }
%struct.FT_Color_ = type { i8, i8, i8, i8 }
%struct.TT_BDFRec_ = type { ptr, ptr, ptr, i64, i32, i8 }

; Function Attrs: nounwind uwtable
define internal i32 @tt_face_load_hmtx(ptr noundef %0, ptr noundef %1, i8 noundef zeroext %2) #0 {
  %4 = alloca ptr, align 8
  %5 = alloca ptr, align 8
  %6 = alloca i8, align 1
  %7 = alloca i32, align 4
  %8 = alloca i64, align 8
  %9 = alloca i64, align 8
  %10 = alloca ptr, align 8
  %11 = alloca ptr, align 8
  store ptr %0, ptr %4, align 8
  store ptr %1, ptr %5, align 8
  store i8 %2, ptr %6, align 1
  %12 = load i8, ptr %6, align 1
  %13 = icmp ne i8 %12, 0
  br i1 %13, label %14, label %19

14:                                               ; preds = %3
  store i64 1986884728, ptr %8, align 8
  %15 = load ptr, ptr %4, align 8
  %16 = getelementptr inbounds %struct.TT_FaceRec_, ptr %15, i32 0, i32 78
  store ptr %16, ptr %10, align 8
  %17 = load ptr, ptr %4, align 8
  %18 = getelementptr inbounds %struct.TT_FaceRec_, ptr %17, i32 0, i32 58
  store ptr %18, ptr %11, align 8
  br label %24

19:                                               ; preds = %3
  store i64 1752003704, ptr %8, align 8
  %20 = load ptr, ptr %4, align 8
  %21 = getelementptr inbounds %struct.TT_FaceRec_, ptr %20, i32 0, i32 77
  store ptr %21, ptr %10, align 8
  %22 = load ptr, ptr %4, align 8
  %23 = getelementptr inbounds %struct.TT_FaceRec_, ptr %22, i32 0, i32 57
  store ptr %23, ptr %11, align 8
  br label %24

24:                                               ; preds = %19, %14
  %25 = load ptr, ptr %4, align 8
  %26 = getelementptr inbounds %struct.TT_FaceRec_, ptr %25, i32 0, i32 16
  %27 = load ptr, ptr %26, align 8
  %28 = load ptr, ptr %4, align 8
  %29 = load i64, ptr %8, align 8
  %30 = load ptr, ptr %5, align 8
  %31 = call i32 %27(ptr noundef %28, i64 noundef %29, ptr noundef %30, ptr noundef %9)
  store i32 %31, ptr %7, align 4
  %32 = load i32, ptr %7, align 4
  %33 = icmp ne i32 %32, 0
  br i1 %33, label %34, label %35

34:                                               ; preds = %24
  br label %41

35:                                               ; preds = %24
  %36 = load i64, ptr %9, align 8
  %37 = load ptr, ptr %11, align 8
  store i64 %36, ptr %37, align 8
  %38 = load ptr, ptr %5, align 8
  %39 = call i64 @FT_Stream_Pos(ptr noundef %38)
  %40 = load ptr, ptr %10, align 8
  store i64 %39, ptr %40, align 8
  br label %41

41:                                               ; preds = %35, %34
  %42 = load i32, ptr %7, align 4
  ret i32 %42
}