; Function Attrs: nounwind uwtable
define internal i32 @tt_face_load_hmtx(ptr noundef %0, ptr noundef %1, i8 noundef zeroext %2) #0 {
  %4 = alloca i64, align 8
  %.not = icmp eq i8 %2, 0
  %.014 = select i1 %.not, i64 1752003704, i64 1986884728
  %5 = getelementptr inbounds i8, ptr %0, i64 832
  %6 = load ptr, ptr %5, align 8
  %7 = call i32 %6(ptr noundef %0, i64 noundef %.014, ptr noundef %1, ptr noundef nonnull %4) #26
  %.not15 = icmp eq i32 %7, 0
  br i1 %.not15, label %8, label %11

8:                                                ; preds = %3
  %.0.v = select i1 %.not, i64 1256, i64 1264
  %.0 = getelementptr inbounds i8, ptr %0, i64 %.0.v
  %.013.v = select i1 %.not, i64 1432, i64 1440
  %.013 = getelementptr inbounds i8, ptr %0, i64 %.013.v
  %9 = load i64, ptr %4, align 8
  store i64 %9, ptr %.0, align 8
  %10 = call i64 @FT_Stream_Pos(ptr noundef %1) #26
  store i64 %10, ptr %.013, align 8
  br label %11

11:                                               ; preds = %3, %8
  ret i32 %7
}